target datalayout = "e-m:e-p270:32:32-p271:32:32-p272:64:64-i64:64-i128:128-f80:128-n8:16:32:64-S128"
target triple = "x86_64-pc-linux-gnu"

%struct.Npn_Man_t_ = type { ptr, ptr, i32, i32, i32 }

@pNpnMan = internal global ptr null, align 8
@.str.9 = private unnamed_addr constant [33 x i8] c"There is no table with entries.\0A\00", align 1
@.str.10 = private unnamed_addr constant [46 x i8] c"Dumped table with %d entries from file \22%s\22.\0A\00", align 1

; Function Attrs: nounwind uwtable
define void @Npn_ManSave(ptr noundef %0) #0 {
  %2 = alloca ptr, align 8
  store ptr %0, ptr %2, align 8
  %3 = load ptr, ptr @pNpnMan, align 8
  %4 = icmp eq ptr %3, null
  br i1 %4, label %5, label %6

5:                                                ; preds = %1
  call void (i32, ptr, ...) @Abc_Print(i32 noundef 1, ptr noundef @.str.9)
  br label %13

6:                                                ; preds = %1
  %7 = load ptr, ptr @pNpnMan, align 8
  %8 = load ptr, ptr %2, align 8
  call void @Npn_ManWrite(ptr noundef %7, ptr noundef %8)
  %9 = load ptr, ptr @pNpnMan, align 8
  %10 = getelementptr inbounds %struct.Npn_Man_t_, ptr %9, i32 0, i32 4
  %11 = load i32, ptr %10, align 8
  %12 = load ptr, ptr %2, align 8
  call void (i32, ptr, ...) @Abc_Print(i32 noundef 1, ptr noundef @.str.10, i32 noundef %11, ptr noundef %12)
  br label %13

13:                                               ; preds = %6, %5
  ret void
}