; Function Attrs: nounwind uwtable
define void @Npn_ManSave(ptr noundef %0) local_unnamed_addr #0 {
  %2 = load ptr, ptr @pNpnMan, align 8
  %3 = icmp eq ptr %2, null
  br i1 %3, label %4, label %5

4:                                                ; preds = %1
  tail call void (i32, ptr, ...) @Abc_Print(i32 noundef 1, ptr noundef nonnull @.str.9)
  br label %9

5:                                                ; preds = %1
  tail call void @Npn_ManWrite(ptr noundef nonnull %2, ptr noundef %0)
  %6 = load ptr, ptr @pNpnMan, align 8
  %7 = getelementptr inbounds nuw i8, ptr %6, i64 24
  %8 = load i32, ptr %7, align 8
  tail call void (i32, ptr, ...) @Abc_Print(i32 noundef 1, ptr noundef nonnull @.str.10, i32 noundef %8, ptr noundef %0)
  br label %9

9:                                                ; preds = %5, %4
  ret void
}